(lp0
(lp1
(F0.0
F0.0
tp2
a(F0.0016286644951140066
F0.0
tp3
a(F0.0016286644951140066
F0.0
tp4
a(F0.006514657980456026
F0.0
tp5
a(F0.011400651465798045
F0.0
tp6
a(F0.02768729641693811
F0.0
tp7
a(F0.048859934853420196
F0.09090909090909091
tp8
a(F0.07980456026058631
F0.3181818181818182
tp9
a(F0.12866449511400652
F0.5454545454545454
tp10
a(F0.18566775244299674
F0.7272727272727273
tp11
a(F0.254071661237785
F0.8181818181818182
tp12
a(F0.32084690553745926
F0.9545454545454546
tp13
a(F0.3925081433224756
F0.9545454545454546
tp14
a(F0.4755700325732899
F0.9545454545454546
tp15
a(F0.5635179153094463
F0.9545454545454546
tp16
a(F0.6530944625407166
F0.9545454545454546
tp17
a(F0.741042345276873
F0.9545454545454546
tp18
a(F0.8175895765472313
F0.9545454545454546
tp19
a(F0.8794788273615635
F0.9545454545454546
tp20
a(F0.9283387622149837
F0.9545454545454546
tp21
a(F0.9592833876221498
F0.9545454545454546
tp22
a(F0.9804560260586319
F0.9545454545454546
tp23
a(F0.995114006514658
F1.0
tp24
a(F0.996742671009772
F1.0
tp25
a(F1.0
F1.0
tp26
a(F1.0
F1.0
tp27
aa(lp28
(F0.0
F0.0
tp29
a(F0.01092896174863388
F0.16666666666666666
tp30
a(F0.029143897996357013
F0.6666666666666666
tp31
a(F0.0546448087431694
F0.8333333333333334
tp32
a(F0.08743169398907104
F1.0
tp33
a(F0.12021857923497267
F1.0
tp34
a(F0.1657559198542805
F1.0
tp35
a(F0.2222222222222222
F1.0
tp36
a(F0.2896174863387978
F1.0
tp37
a(F0.35154826958105645
F1.0
tp38
a(F0.4134790528233151
F1.0
tp39
a(F0.47540983606557374
F1.0
tp40
a(F0.5446265938069217
F1.0
tp41
a(F0.6065573770491803
F1.0
tp42
a(F0.668488160291439
F1.0
tp43
a(F0.7304189435336976
F1.0
tp44
a(F0.7868852459016393
F1.0
tp45
a(F0.8360655737704918
F1.0
tp46
a(F0.8797814207650273
F1.0
tp47
a(F0.912568306010929
F1.0
tp48
a(F0.9398907103825137
F1.0
tp49
a(F0.9617486338797814
F1.0
tp50
a(F0.97632058287796
F1.0
tp51
a(F0.9854280510018215
F1.0
tp52
a(F0.9908925318761385
F1.0
tp53
a(F0.994535519125683
F1.0
tp54
a(F0.994535519125683
F1.0
tp55
a(F0.9963570127504554
F1.0
tp56
a(F0.9981785063752276
F1.0
tp57
a(F1.0
F1.0
tp58
aa(lp59
(F0.0
F0.0
tp60
a(F0.004893964110929853
F0.0
tp61
a(F0.01631321370309951
F0.007633587786259542
tp62
a(F0.03262642740619902
F0.022900763358778626
tp63
a(F0.057096247960848286
F0.04961832061068702
tp64
a(F0.0864600326264274
F0.08015267175572519
tp65
a(F0.1272430668841762
F0.11450381679389313
tp66
a(F0.16802610114192496
F0.15267175572519084
tp67
a(F0.21533442088091354
F0.1984732824427481
tp68
a(F0.2626427406199021
F0.2480916030534351
tp69
a(F0.31484502446982054
F0.3015267175572519
tp70
a(F0.3719412724306688
F0.366412213740458
tp71
a(F0.4371941272430669
F0.44274809160305345
tp72
a(F0.5106035889070146
F0.5190839694656488
tp73
a(F0.5905383360522023
F0.5992366412213741
tp74
a(F0.6704730831973899
F0.6793893129770993
tp75
a(F0.7438825448613376
F0.7480916030534351
tp76
a(F0.8123980424143556
F0.8091603053435115
tp77
a(F0.8646003262642741
F0.8625954198473282
tp78
a(F0.9037520391517129
F0.8931297709923665
tp79
a(F0.9347471451876019
F0.9236641221374046
tp80
a(F0.9575856443719413
F0.9465648854961832
tp81
a(F0.9738988580750407
F0.9656488549618321
tp82
a(F0.9869494290375204
F0.9809160305343512
tp83
a(F0.9934747145187602
F0.9885496183206107
tp84
a(F0.9967373572593801
F0.9923664122137404
tp85
a(F0.99836867862969
F0.9961832061068703
tp86
a(F1.0
F1.0
tp87
aa(lp88
(F0.0
F-0.0
tp89
a(F0.005128205128205128
F0.004219409282700422
tp90
a(F0.011965811965811967
F0.012658227848101266
tp91
a(F0.02905982905982906
F0.029535864978902954
tp92
a(F0.05299145299145299
F0.05485232067510549
tp93
a(F0.08717948717948718
F0.08438818565400844
tp94
a(F0.13504273504273503
F0.1350210970464135
tp95
a(F0.19487179487179487
F0.1940928270042194
tp96
a(F0.26153846153846155
F0.270042194092827
tp97
a(F0.3384615384615385
F0.3333333333333333
tp98
a(F0.42735042735042733
F0.41350210970464135
tp99
a(F0.5094017094017094
F0.5021097046413502
tp100
a(F0.5931623931623932
F0.5780590717299579
tp101
a(F0.6683760683760683
F0.6455696202531646
tp102
a(F0.7384615384615385
F0.70042194092827
tp103
a(F0.8051282051282052
F0.7637130801687764
tp104
a(F0.8632478632478633
F0.8143459915611815
tp105
a(F0.905982905982906
F0.8523206751054853
tp106
a(F0.9384615384615385
F0.8860759493670886
tp107
a(F0.958974358974359
F0.9113924050632911
tp108
a(F0.9743589743589743
F0.9367088607594937
tp109
a(F0.9811965811965812
F0.9493670886075949
tp110
a(F0.9863247863247864
F0.9578059071729957
tp111
a(F0.9897435897435898
F0.9620253164556962
tp112
a(F0.9914529914529915
F0.9662447257383966
tp113
a(F0.9914529914529915
F0.9704641350210971
tp114
a(F0.9914529914529915
F0.9746835443037974
tp115
a(F0.9931623931623932
F0.9789029535864979
tp116
a(F0.9948717948717949
F0.9831223628691983
tp117
a(F0.9948717948717949
F0.9873417721518988
tp118
a(F0.9965811965811966
F0.9915611814345991
tp119
a(F0.9982905982905983
F0.9957805907172996
tp120
a(F1.0
F1.0
tp121
aa(lp122
(F0.0
F-0.0
tp123
a(F0.0051813471502590676
F0.014492753623188406
tp124
a(F0.013816925734024179
F0.043478260869565216
tp125
a(F0.027633851468048358
F0.08695652173913043
tp126
a(F0.044905008635578586
F0.17391304347826086
tp127
a(F0.06563039723661486
F0.2463768115942029
tp128
a(F0.09671848013816926
F0.3333333333333333
tp129
a(F0.12780656303972365
F0.4492753623188406
tp130
a(F0.17271157167530224
F0.5942028985507246
tp131
a(F0.2158894645941278
F0.7536231884057971
tp132
a(F0.2694300518134715
F0.927536231884058
tp133
a(F0.3143350604490501
F1.0869565217391304
tp134
a(F0.3626943005181347
F1.2463768115942029
tp135
a(F0.4006908462867012
F1.3768115942028984
tp136
a(F0.43523316062176165
F1.463768115942029
tp137
a(F0.46459412780656306
F1.5217391304347827
tp138
a(F0.4905008635578584
F1.565217391304348
tp139
a(F0.5146804835924007
F1.608695652173913
tp140
a(F0.5371329879101899
F1.6231884057971016
tp141
a(F0.5613126079447323
F1.6376811594202898
tp142
a(F0.5803108808290155
F1.6376811594202898
tp143
a(F0.6010362694300518
F1.6376811594202898
tp144
a(F0.6234887737478411
F1.6376811594202898
tp145
a(F0.6476683937823834
F1.6376811594202898
tp146
a(F0.6701208981001727
F1.6376811594202898
tp147
a(F0.690846286701209
F1.6231884057971016
tp148
a(F0.7132987910189983
F1.5942028985507246
tp149
a(F0.7374784110535406
F1.565217391304348
tp150
a(F0.7599309153713298
F1.5217391304347827
tp151
a(F0.7806563039723662
F1.4782608695652173
tp152
a(F0.8013816925734024
F1.4492753623188406
tp153
a(F0.8203799654576857
F1.4202898550724639
tp154
a(F0.8411053540587219
F1.3623188405797102
tp155
a(F0.8618307426597582
F1.3043478260869565
tp156
a(F0.8825561312607945
F1.2463768115942029
tp157
a(F0.9032815198618307
F1.1884057971014492
tp158
a(F0.9205526770293609
F1.1594202898550725
tp159
a(F0.9360967184801382
F1.1159420289855073
tp160
a(F0.9516407599309153
F1.0869565217391304
tp161
a(F0.9637305699481865
F1.0579710144927537
tp162
a(F0.9758203799654577
F1.0434782608695652
tp163
a(F0.9844559585492227
F1.0289855072463767
tp164
a(F0.9913644214162349
F1.0144927536231885
tp165
a(F0.9930915371329879
F1.0144927536231885
tp166
a(F0.9965457685664939
F1.0
tp167
a(F0.998272884283247
F1.0
tp168
a(F1.0
F1.0
tp169
aa(lp170
(F0.0
F-0.0
tp171
a(F0.006097560975609756
F0.02564102564102564
tp172
a(F0.01676829268292683
F0.07692307692307693
tp173
a(F0.0350609756097561
F0.10256410256410256
tp174
a(F0.057926829268292686
F0.1794871794871795
tp175
a(F0.08384146341463415
F0.28205128205128205
tp176
a(F0.11585365853658537
F0.41025641025641024
tp177
a(F0.16158536585365854
F0.5641025641025641
tp178
a(F0.2073170731707317
F0.6923076923076923
tp179
a(F0.2621951219512195
F0.8974358974358975
tp180
a(F0.3170731707317073
F1.0512820512820513
tp181
a(F0.37652439024390244
F1.1538461538461537
tp182
a(F0.4451219512195122
F1.205128205128205
tp183
a(F0.5121951219512195
F1.205128205128205
tp184
a(F0.5792682926829268
F1.205128205128205
tp185
a(F0.6463414634146342
F1.205128205128205
tp186
a(F0.7195121951219512
F1.205128205128205
tp187
a(F0.7865853658536586
F1.205128205128205
tp188
a(F0.8429878048780488
F1.205128205128205
tp189
a(F0.8948170731707317
F1.205128205128205
tp190
a(F0.9375
F1.205128205128205
tp191
a(F0.9679878048780488
F1.205128205128205
tp192
a(F0.9969512195121951
F1.205128205128205
tp193
a(F1.0182926829268293
F1.205128205128205
tp194
a(F1.041158536585366
F1.205128205128205
tp195
a(F1.0579268292682926
F1.1794871794871795
tp196
a(F1.0701219512195121
F1.1025641025641026
tp197
a(F1.086890243902439
F1.0769230769230769
tp198
a(F1.0975609756097562
F1.0256410256410255
tp199
a(F1.1051829268292683
F1.0
tp200
a(F1.1097560975609757
F1.0
tp201
a(F1.1158536585365855
F1.0
tp202
a(F1.1173780487804879
F1.0
tp203
a(F1.1189024390243902
F1.0
tp204
a(F1.1189024390243902
F1.0
tp205
a(F1.1128048780487805
F1.0
tp206
a(F1.1021341463414633
F1.0
tp207
a(F1.086890243902439
F1.0
tp208
a(F1.0716463414634145
F1.0
tp209
a(F1.0548780487804879
F1.0
tp210
a(F1.0396341463414633
F1.0
tp211
a(F1.0259146341463414
F1.0
tp212
a(F1.016768292682927
F1.0
tp213
a(F1.0076219512195121
F1.0
tp214
a(F1.0045731707317074
F1.0
tp215
a(F1.0015243902439024
F1.0
tp216
a(F1.0
F1.0
tp217
aa(lp218
(F0.0
F0.0
tp219
a(F0.003076923076923077
F0.005025125628140704
tp220
a(F0.013846153846153847
F0.01507537688442211
tp221
a(F0.03538461538461538
F0.04522613065326633
tp222
a(F0.06923076923076923
F0.08542713567839195
tp223
a(F0.11846153846153847
F0.15577889447236182
tp224
a(F0.18769230769230769
F0.24623115577889448
tp225
a(F0.2676923076923077
F0.35175879396984927
tp226
a(F0.35846153846153844
F0.4723618090452261
tp227
a(F0.4523076923076923
F0.5728643216080402
tp228
a(F0.5415384615384615
F0.6582914572864321
tp229
a(F0.6292307692307693
F0.7185929648241206
tp230
a(F0.7107692307692308
F0.7738693467336684
tp231
a(F0.7815384615384615
F0.8190954773869347
tp232
a(F0.8492307692307692
F0.864321608040201
tp233
a(F0.9046153846153846
F0.9045226130653267
tp234
a(F0.9461538461538461
F0.9396984924623115
tp235
a(F0.9707692307692307
F0.9698492462311558
tp236
a(F0.9861538461538462
F0.9798994974874372
tp237
a(F0.9953846153846154
F0.9849246231155779
tp238
a(F0.9969230769230769
F0.9899497487437185
tp239
a(F0.9984615384615385
F0.9949748743718593
tp240
a(F1.0
F1.0
tp241
aa(lp242
(F0.0
F-0.0
tp243
a(F0.009077155824508321
F0.0033783783783783786
tp244
a(F0.0226928895612708
F0.016891891891891893
tp245
a(F0.04387291981845688
F0.033783783783783786
tp246
a(F0.07413010590015129
F0.060810810810810814
tp247
a(F0.11497730711043873
F0.11148648648648649
tp248
a(F0.16036308623298035
F0.17229729729729729
tp249
a(F0.21482602118003025
F0.23648648648648649
tp250
a(F0.27987897125567324
F0.3141891891891892
tp251
a(F0.3494704992435703
F0.3918918918918919
tp252
a(F0.43267776096822996
F0.46621621621621623
tp253
a(F0.5264750378214826
F0.5574324324324325
tp254
a(F0.6202723146747352
F0.6418918918918919
tp255
a(F0.7095310136157338
F0.7331081081081081
tp256
a(F0.7881996974281392
F0.8040540540540541
tp257
a(F0.8577912254160364
F0.8648648648648649
tp258
a(F0.9107413010590015
F0.9155405405405406
tp259
a(F0.9531013615733737
F0.9527027027027027
tp260
a(F0.9773071104387292
F0.972972972972973
tp261
a(F0.9909228441754917
F0.9898648648648649
tp262
a(F0.9969742813918305
F0.9966216216216216
tp263
a(F0.9984871406959153
F1.0
tp264
a(F1.0
F1.0
tp265
aa(lp266
(F0.0
F0.0
tp267
a(F0.023679417122040074
F0.016877637130801686
tp268
a(F0.052823315118397086
F0.029535864978902954
tp269
a(F0.08743169398907104
F0.046413502109704644
tp270
a(F0.13479052823315119
F0.06751054852320675
tp271
a(F0.18397085610200364
F0.10126582278481013
tp272
a(F0.23679417122040072
F0.14767932489451477
tp273
a(F0.30601092896174864
F0.2109704641350211
tp274
a(F0.37522768670309653
F0.2742616033755274
tp275
a(F0.44808743169398907
F0.35443037974683544
tp276
a(F0.5209471766848816
F0.4472573839662447
tp277
a(F0.5865209471766849
F0.540084388185654
tp278
a(F0.6539162112932605
F0.6329113924050633
tp279
a(F0.7140255009107468
F0.7088607594936709
tp280
a(F0.7668488160291439
F0.7679324894514767
tp281
a(F0.8142076502732241
F0.8227848101265823
tp282
a(F0.8652094717668488
F0.869198312236287
tp283
a(F0.907103825136612
F0.9113924050632911
tp284
a(F0.9398907103825137
F0.9451476793248945
tp285
a(F0.9653916211293261
F0.9704641350210971
tp286
a(F0.9817850637522769
F0.9831223628691983
tp287
a(F0.9908925318761385
F0.9957805907172996
tp288
a(F0.9963570127504554
F1.0
tp289
a(F0.9981785063752276
F1.0
tp290
a(F1.0
F1.0
tp291
aa.